; Function Attrs: mustprogress uwtable
define hidden noundef zeroext i1 @_ZN3smt12utvpi_testerclEjPKP4expr(ptr noundef nonnull align 8 dereferenceable(152) %this, i32 noundef %num_fmls, ptr nocapture noundef readonly %fmls) local_unnamed_addr #4 align 2 {
entry:
  %cmp3 = icmp eq i32 %num_fmls, 0
  br i1 %cmp3, label %return, label %for.body.preheader

for.body.preheader:                               ; preds = %entry
  %0 = zext i32 %num_fmls to i64
  %1 = load ptr, ptr %fmls, align 8
  %call7 = tail call noundef zeroext i1 @_ZN3smt12utvpi_testerclEP4expr(ptr noundef nonnull align 8 dereferenceable(152) %this, ptr noundef %1)
  br i1 %call7, label %for.cond, label %return

for.cond:                                         ; preds = %for.body.preheader, %for.body
  %indvars.iv8 = phi i64 [ %indvars.iv.next, %for.body ], [ 0, %for.body.preheader ]
  %indvars.iv.next = add nuw nsw i64 %indvars.iv8, 1
  %exitcond = icmp eq i64 %indvars.iv.next, %0
  br i1 %exitcond, label %return.loopexit, label %for.body, !llvm.loop !156

for.body:                                         ; preds = %for.cond
  %arrayidx = getelementptr inbounds ptr, ptr %fmls, i64 %indvars.iv.next
  %2 = load ptr, ptr %arrayidx, align 8
  %call = tail call noundef zeroext i1 @_ZN3smt12utvpi_testerclEP4expr(ptr noundef nonnull align 8 dereferenceable(152) %this, ptr noundef %2)
  br i1 %call, label %for.cond, label %return.loopexit, !llvm.loop !156

return.loopexit:                                  ; preds = %for.body, %for.cond
  %cmp.le = icmp uge i64 %indvars.iv.next, %0
  br label %return

return:                                           ; preds = %return.loopexit, %for.body.preheader, %entry
  %cmp.lcssa = phi i1 [ true, %entry ], [ false, %for.body.preheader ], [ %cmp.le, %return.loopexit ]
  ret i1 %cmp.lcssa
}